(dp1
S'4:root/CSMARTREF_SMARTD1'
p2
(dp3
VCSMARTCNC
p4
S'root/ORACLE/DEV.oracle/CSMARTREF_SMARTD1'
p5
sS'DLROGMARWSMART'
p6
S'root/ORACLE/DEV.oracle/CSMARTREF_SMARTD1'
p7
sVCSMARTBSER
p8
S'root/ORACLE/DEV.oracle/CSMARTREF_SMARTD1'
p9
sVCSMARTFORCE
p10
S'root/ORACLE/DEV.oracle/CSMARTREF_SMARTD1'
p11
sS'CSMARTSWS1'
p12
S'root/ORACLE/DEV.oracle/CSMARTREF_SMARTD1'
p13
sS'RSMARTVOL'
p14
S'root/ORACLE/DEV.oracle/CSMARTREF_SMARTD1'
p15
sVCSMARTIRIS
p16
S'root/ORACLE/DEV.oracle/CSMARTREF_SMARTD1'
p17
ssS'5:root/CSMARTREF_SMARTD1/CSMARTFORCE'
p18
(dp19
S'IRIS_BO_DATASOURCE'
p20
S'root/ORACLE/DEV.oracle/CSMARTREF_SMARTD1/CSMARTFORCE'
p21
ss.